; Function Attrs: nounwind sspstrong uwtable
define dso_local noundef zeroext i1 @visit_type_BlockdevOptionsCurlHttp_members(ptr noundef %v, ptr noundef %obj, ptr noundef %errp) local_unnamed_addr #0 {
entry:
  %has_cookie = alloca i8, align 1
  %has_cookie_secret = alloca i8, align 1
  %cookie = getelementptr inbounds nuw i8, ptr %obj, i64 72
  %0 = load ptr, ptr %cookie, align 8
  %tobool = icmp ne ptr %0, null
  %frombool = zext i1 %tobool to i8
  store i8 %frombool, ptr %has_cookie, align 1
  %cookie_secret = getelementptr inbounds nuw i8, ptr %obj, i64 80
  %1 = load ptr, ptr %cookie_secret, align 8
  %tobool2 = icmp ne ptr %1, null
  %frombool5 = zext i1 %tobool2 to i8
  store i8 %frombool5, ptr %has_cookie_secret, align 1
  %call = tail call zeroext i1 @visit_type_BlockdevOptionsCurlBase_members(ptr noundef %v, ptr noundef %obj, ptr noundef %errp)
  br i1 %call, label %if.end, label %return

if.end:                                           ; preds = %entry
  %call6 = call zeroext i1 @visit_optional(ptr noundef %v, ptr noundef nonnull @.str.366, ptr noundef nonnull %has_cookie) #5
  br i1 %call6, label %if.then7, label %if.end12

if.then7:                                         ; preds = %if.end
  %call9 = call zeroext i1 @visit_type_str(ptr noundef %v, ptr noundef nonnull @.str.366, ptr noundef nonnull %cookie, ptr noundef %errp) #5
  br i1 %call9, label %if.end12, label %return

if.end12:                                         ; preds = %if.then7, %if.end
  %call13 = call zeroext i1 @visit_optional(ptr noundef %v, ptr noundef nonnull @.str.367, ptr noundef nonnull %has_cookie_secret) #5
  br i1 %call13, label %if.then14, label %if.end19

if.then14:                                        ; preds = %if.end12
  %call16 = call zeroext i1 @visit_type_str(ptr noundef %v, ptr noundef nonnull @.str.367, ptr noundef nonnull %cookie_secret, ptr noundef %errp) #5
  br i1 %call16, label %if.end19, label %return

if.end19:                                         ; preds = %if.then14, %if.end12
  br label %return

return:                                           ; preds = %if.then14, %if.then7, %entry, %if.end19
  %retval.0 = phi i1 [ true, %if.end19 ], [ false, %entry ], [ false, %if.then7 ], [ false, %if.then14 ]
  ret i1 %retval.0
}